(lp0
I-7
aI9
aI-8
aI9
aI6
aI5
aI-2
aI4
aI-6
aI4
aI-7
aI3
aI0
aI-8
aI5
aI9
aI1
aI8
aI1
aI3
aI-3
aI-1
aI-3
aI4
aI6
aI-9
aI8
aI9
aI-7
aI10
aI10
aI-7
aI-5
aI-7
aI-3
aI-5
aI7
aI4
aI-7
aI10
aI1
aI-9
aI-5
aI-7
aI5
aI-8
aI9
aI-2
aI5
aI-2
aI-3
aI3
a.