(lp0
I-8
aI-9
aI10
aI2
aI7
aI1
aI10
aI-7
aI8
aI-2
aI-10
aI5
aI9
aI4
aI4
aI-6
aI-3
aI9
aI-3
aI-6
aI0
aI-9
aI3
aI-6
aI2
aI7
aI-8
aI6
aI-7
aI1
aI8
aI-8
aI-5
aI-2
aI10
aI-8
aI-3
aI3
aI-3
aI-9
aI-5
aI6
aI-10
aI-2
aI4
aI7
aI-1
aI-7
aI1
aI-5
aI-8
aI-10
a.