(lp0
I-10
aI-8
aI-5
aI8
aI-3
aI-2
aI9
aI9
aI-4
aI-10
aI2
aI-6
aI-7
aI-5
aI6
aI-10
aI10
aI0
aI2
aI4
aI-1
aI-9
aI7
aI-9
aI6
aI0
aI8
aI-6
aI-6
aI10
aI-5
aI6
aI-7
aI-8
aI4
aI-8
aI4
aI3
aI1
aI7
aI7
aI-10
aI8
aI-6
aI-1
aI0
aI0
aI0
aI-5
aI-9
aI4
aI-3
a.