(lp0
I-8
aI10
aI10
aI-2
aI-10
aI5
aI8
aI-10
aI1
aI4
aI5
aI-2
aI-3
aI3
aI-4
aI3
aI9
aI3
aI-1
aI-2
aI6
aI-6
aI-3
aI-8
aI1
aI-10
aI-6
aI3
aI1
aI-4
aI2
aI-4
aI6
aI7
aI8
aI-6
aI4
aI7
aI5
aI10
aI-10
aI0
aI4
aI3
aI-9
aI-9
aI9
aI0
aI5
aI4
aI0
aI0
a.