(lp0
I3
aI6
aI-10
aI2
aI2
aI15
aI7
aI-3
aI3
aI-6
aI-8
aI6
aI-7
aI-1
aI3
aI12
aI-2
aI-2
aI-10
aI3
aI1
aI1
aI-9
aI-2
aI0
aI4
aI-8
aI8
aI-4
aI1
aI-9
aI10
aI-5
aI-10
aI4
aI-4
aI-9
aI-10
aI1
aI4
aI-5
aI8
aI1
aI-1
aI9
aI-7
aI10
aI7
aI6
aI-7
aI-1
aI4
a.