(lp0
I7
aI-6
aI-5
aI-8
aI5
aI-9
aI1
aI6
aI3
aI-9
aI-9
aI-1
aI-1
aI5
aI6
aI5
aI9
aI-2
aI-2
aI-3
aI-6
aI3
aI-1
aI1
aI-2
aI-1
aI9
aI-6
aI8
aI-3
aI-9
aI-2
aI7
aI-9
aI-1
aI9
aI1
aI1
aI-7
aI1
aI4
aI-7
aI-10
aI8
aI-5
aI-2
aI5
aI-8
aI1
aI-5
aI-10
aI-7
a.