(lp0
I3
aI10
aI-5
aI10
aI0
aI-10
aI8
aI7
aI-3
aI8
aI1
aI-3
aI6
aI9
aI-4
aI1
aI1
aI-6
aI-2
aI10
aI9
aI3
aI2
aI6
aI1
aI3
aI10
aI-1
aI-4
aI-3
aI8
aI-2
aI-5
aI3
aI3
aI-3
aI-7
aI-10
aI10
aI-10
aI5
aI-3
aI4
aI2
aI-7
aI3
aI5
aI-6
aI-9
aI9
aI11
aI3
a.