(lp0
I7
aI5
aI-5
aI9
aI2
aI3
aI-4
aI-10
aI-8
aI-7
aI-9
aI-10
aI-7
aI11
aI6
aI1
aI6
aI8
aI-3
aI0
aI0
aI-4
aI-6
aI-5
aI4
aI-6
aI0
aI3
aI-7
aI-4
aI-2
aI-11
aI-3
aI-12
aI-4
aI3
aI4
aI-9
aI1
aI2
aI-4
aI6
aI3
aI2
aI-9
aI-8
aI7
aI-2
aI7
aI9
aI-5
aI-11
a.