(lp0
I5
aI10
aI2
aI8
aI-3
aI-5
aI-6
aI-9
aI-10
aI-10
aI9
aI-4
aI-4
aI-6
aI-1
aI2
aI-9
aI3
aI3
aI1
aI-6
aI4
aI6
aI-6
aI-7
aI7
aI-9
aI1
aI6
aI3
aI3
aI-4
aI-2
aI3
aI2
aI4
aI9
aI-1
aI4
aI9
aI-10
aI-3
aI-7
aI0
aI-1
aI7
aI-2
aI-3
aI6
aI-8
aI10
aI-4
a.